target datalayout = "e-m:e-p270:32:32-p271:32:32-p272:64:64-i64:64-i128:128-f80:128-n8:16:32:64-S128"
target triple = "x86_64-pc-linux-gnu"

@.str = private unnamed_addr constant [26 x i8] c"../openssl/test/crltest.c\00", align 1
@.str.52 = private unnamed_addr constant [4 x i8] c"ctx\00", align 1
@.str.53 = private unnamed_addr constant [6 x i8] c"store\00", align 1
@.str.54 = private unnamed_addr constant [6 x i8] c"param\00", align 1
@.str.55 = private unnamed_addr constant [6 x i8] c"roots\00", align 1
@.str.56 = private unnamed_addr constant [26 x i8] c"sk_X509_push(roots, root)\00", align 1
@.str.57 = private unnamed_addr constant [44 x i8] c"X509_STORE_CTX_init(ctx, store, leaf, NULL)\00", align 1
@.str.58 = private unnamed_addr constant [40 x i8] c"(long)X509_VERIFY_PARAM_get_time(param)\00", align 1
@.str.59 = private unnamed_addr constant [11 x i8] c"PARAM_TIME\00", align 1

; Function Attrs: inlinehint nounwind uwtable
define internal ptr @ossl_check_X509_CRL_freefunc_type(ptr noundef %0) #3 {
  %2 = alloca ptr, align 8
  store ptr %0, ptr %2, align 8, !tbaa !31
  %3 = load ptr, ptr %2, align 8, !tbaa !31
  ret ptr %3
}

; Function Attrs: inlinehint nounwind uwtable
define internal ptr @ossl_check_X509_CRL_sk_type(ptr noundef %0) #3 {
  %2 = alloca ptr, align 8
  store ptr %0, ptr %2, align 8, !tbaa !21
  %3 = load ptr, ptr %2, align 8, !tbaa !21
  ret ptr %3
}

; Function Attrs: inlinehint nounwind uwtable
define internal ptr @ossl_check_X509_type(ptr noundef %0) #3 {
  %2 = alloca ptr, align 8
  store ptr %0, ptr %2, align 8, !tbaa !4
  %3 = load ptr, ptr %2, align 8, !tbaa !4
  ret ptr %3
}

; Function Attrs: inlinehint nounwind uwtable
define internal ptr @ossl_check_X509_sk_type(ptr noundef %0) #3 {
  %2 = alloca ptr, align 8
  store ptr %0, ptr %2, align 8, !tbaa !29
  %3 = load ptr, ptr %2, align 8, !tbaa !29
  ret ptr %3
}

; Function Attrs: nounwind uwtable
define internal i32 @verify(ptr noundef %0, ptr noundef %1, ptr noundef %2, i64 noundef %3) #0 {
  %5 = alloca ptr, align 8
  %6 = alloca ptr, align 8
  %7 = alloca ptr, align 8
  %8 = alloca i64, align 8
  %9 = alloca ptr, align 8
  %10 = alloca ptr, align 8
  %11 = alloca ptr, align 8
  %12 = alloca ptr, align 8
  %13 = alloca i32, align 4
  store ptr %0, ptr %5, align 8, !tbaa !4
  store ptr %1, ptr %6, align 8, !tbaa !4
  store ptr %2, ptr %7, align 8, !tbaa !21
  store i64 %3, ptr %8, align 8, !tbaa !19
  call void @llvm.lifetime.start.p0(i64 8, ptr %9) #4
  %14 = call ptr @X509_STORE_CTX_new()
  store ptr %14, ptr %9, align 8, !tbaa !23
  call void @llvm.lifetime.start.p0(i64 8, ptr %10) #4
  %15 = call ptr @X509_STORE_new()
  store ptr %15, ptr %10, align 8, !tbaa !25
  call void @llvm.lifetime.start.p0(i64 8, ptr %11) #4
  %16 = call ptr @X509_VERIFY_PARAM_new()
  store ptr %16, ptr %11, align 8, !tbaa !27
  call void @llvm.lifetime.start.p0(i64 8, ptr %12) #4
  %17 = call ptr @OPENSSL_sk_new_null()
  store ptr %17, ptr %12, align 8, !tbaa !29
  call void @llvm.lifetime.start.p0(i64 4, ptr %13) #4
  store i32 1, ptr %13, align 4, !tbaa !17
  %18 = load ptr, ptr %9, align 8, !tbaa !23
  %19 = call i32 @test_ptr(ptr noundef @.str, i32 noundef 262, ptr noundef @.str.52, ptr noundef %18)
  %20 = icmp ne i32 %19, 0
  br i1 %20, label %21, label %33

21:                                               ; preds = %4
  %22 = load ptr, ptr %10, align 8, !tbaa !25
  %23 = call i32 @test_ptr(ptr noundef @.str, i32 noundef 263, ptr noundef @.str.53, ptr noundef %22)
  %24 = icmp ne i32 %23, 0
  br i1 %24, label %25, label %33

25:                                               ; preds = %21
  %26 = load ptr, ptr %11, align 8, !tbaa !27
  %27 = call i32 @test_ptr(ptr noundef @.str, i32 noundef 264, ptr noundef @.str.54, ptr noundef %26)
  %28 = icmp ne i32 %27, 0
  br i1 %28, label %29, label %33

29:                                               ; preds = %25
  %30 = load ptr, ptr %12, align 8, !tbaa !29
  %31 = call i32 @test_ptr(ptr noundef @.str, i32 noundef 265, ptr noundef @.str.55, ptr noundef %30)
  %32 = icmp ne i32 %31, 0
  br i1 %32, label %34, label %33

33:                                               ; preds = %29, %25, %21, %4
  br label %87

34:                                               ; preds = %29
  %35 = load ptr, ptr %6, align 8, !tbaa !4
  %36 = call i32 @X509_up_ref(ptr noundef %35)
  %37 = load ptr, ptr %12, align 8, !tbaa !29
  %38 = call ptr @ossl_check_X509_sk_type(ptr noundef %37)
  %39 = load ptr, ptr %6, align 8, !tbaa !4
  %40 = call ptr @ossl_check_X509_type(ptr noundef %39)
  %41 = call i32 @OPENSSL_sk_push(ptr noundef %38, ptr noundef %40)
  %42 = icmp ne i32 %41, 0
  %43 = zext i1 %42 to i32
  %44 = call i32 @test_true(ptr noundef @.str, i32 noundef 270, ptr noundef @.str.56, i32 noundef %43)
  %45 = icmp ne i32 %44, 0
  br i1 %45, label %46, label %55

46:                                               ; preds = %34
  %47 = load ptr, ptr %9, align 8, !tbaa !23
  %48 = load ptr, ptr %10, align 8, !tbaa !25
  %49 = load ptr, ptr %5, align 8, !tbaa !4
  %50 = call i32 @X509_STORE_CTX_init(ptr noundef %47, ptr noundef %48, ptr noundef %49, ptr noundef null)
  %51 = icmp ne i32 %50, 0
  %52 = zext i1 %51 to i32
  %53 = call i32 @test_true(ptr noundef @.str, i32 noundef 271, ptr noundef @.str.57, i32 noundef %52)
  %54 = icmp ne i32 %53, 0
  br i1 %54, label %56, label %55

55:                                               ; preds = %46, %34
  br label %87

56:                                               ; preds = %46
  %57 = load ptr, ptr %9, align 8, !tbaa !23
  %58 = load ptr, ptr %12, align 8, !tbaa !29
  call void @X509_STORE_CTX_set0_trusted_stack(ptr noundef %57, ptr noundef %58)
  %59 = load ptr, ptr %9, align 8, !tbaa !23
  %60 = load ptr, ptr %7, align 8, !tbaa !21
  call void @X509_STORE_CTX_set0_crls(ptr noundef %59, ptr noundef %60)
  %61 = load ptr, ptr %11, align 8, !tbaa !27
  call void @X509_VERIFY_PARAM_set_time(ptr noundef %61, i64 noundef 1474934400)
  %62 = load ptr, ptr %11, align 8, !tbaa !27
  %63 = call i64 @X509_VERIFY_PARAM_get_time(ptr noundef %62)
  %64 = call i32 @test_long_eq(ptr noundef @.str, i32 noundef 276, ptr noundef @.str.58, ptr noundef @.str.59, i64 noundef %63, i64 noundef 1474934400)
  %65 = icmp ne i32 %64, 0
  br i1 %65, label %67, label %66

66:                                               ; preds = %56
  br label %87

67:                                               ; preds = %56
  %68 = load ptr, ptr %11, align 8, !tbaa !27
  call void @X509_VERIFY_PARAM_set_depth(ptr noundef %68, i32 noundef 16)
  %69 = load i64, ptr %8, align 8, !tbaa !19
  %70 = icmp ne i64 %69, 0
  br i1 %70, label %71, label %75

71:                                               ; preds = %67
  %72 = load ptr, ptr %11, align 8, !tbaa !27
  %73 = load i64, ptr %8, align 8, !tbaa !19
  %74 = call i32 @X509_VERIFY_PARAM_set_flags(ptr noundef %72, i64 noundef %73)
  br label %75

75:                                               ; preds = %71, %67
  %76 = load ptr, ptr %9, align 8, !tbaa !23
  %77 = load ptr, ptr %11, align 8, !tbaa !27
  call void @X509_STORE_CTX_set0_param(ptr noundef %76, ptr noundef %77)
  store ptr null, ptr %11, align 8, !tbaa !27
  call void @ERR_clear_error()
  %78 = load ptr, ptr %9, align 8, !tbaa !23
  %79 = call i32 @X509_verify_cert(ptr noundef %78)
  %80 = icmp eq i32 %79, 1
  br i1 %80, label %81, label %82

81:                                               ; preds = %75
  br label %85

82:                                               ; preds = %75
  %83 = load ptr, ptr %9, align 8, !tbaa !23
  %84 = call i32 @X509_STORE_CTX_get_error(ptr noundef %83)
  br label %85

85:                                               ; preds = %82, %81
  %86 = phi i32 [ 0, %81 ], [ %84, %82 ]
  store i32 %86, ptr %13, align 4, !tbaa !17
  br label %87

87:                                               ; preds = %85, %66, %55, %33
  %88 = load ptr, ptr %12, align 8, !tbaa !29
  call void @OSSL_STACK_OF_X509_free(ptr noundef %88)
  %89 = load ptr, ptr %7, align 8, !tbaa !21
  %90 = call ptr @ossl_check_X509_CRL_sk_type(ptr noundef %89)
  %91 = call ptr @ossl_check_X509_CRL_freefunc_type(ptr noundef @X509_CRL_free)
  call void @OPENSSL_sk_pop_free(ptr noundef %90, ptr noundef %91)
  %92 = load ptr, ptr %11, align 8, !tbaa !27
  call void @X509_VERIFY_PARAM_free(ptr noundef %92)
  %93 = load ptr, ptr %9, align 8, !tbaa !23
  call void @X509_STORE_CTX_free(ptr noundef %93)
  %94 = load ptr, ptr %10, align 8, !tbaa !25
  call void @X509_STORE_free(ptr noundef %94)
  %95 = load i32, ptr %13, align 4, !tbaa !17
  call void @llvm.lifetime.end.p0(i64 4, ptr %13) #4
  call void @llvm.lifetime.end.p0(i64 8, ptr %12) #4
  call void @llvm.lifetime.end.p0(i64 8, ptr %11) #4
  call void @llvm.lifetime.end.p0(i64 8, ptr %10) #4
  call void @llvm.lifetime.end.p0(i64 8, ptr %9) #4
  ret i32 %95
}