; Function Attrs: nounwind uwtable
define internal fastcc i32 @verify(ptr noundef %0, ptr noundef %1, ptr noundef %2) unnamed_addr #0 {
  %4 = tail call ptr @X509_STORE_CTX_new() #3
  %5 = tail call ptr @X509_STORE_new() #3
  %6 = tail call ptr @X509_VERIFY_PARAM_new() #3
  %7 = tail call ptr @OPENSSL_sk_new_null() #3
  %8 = tail call i32 @test_ptr(ptr noundef nonnull @.str, i32 noundef 262, ptr noundef nonnull @.str.52, ptr noundef %4) #3
  %.not = icmp eq i32 %8, 0
  br i1 %.not, label %35, label %9

9:                                                ; preds = %3
  %10 = tail call i32 @test_ptr(ptr noundef nonnull @.str, i32 noundef 263, ptr noundef nonnull @.str.53, ptr noundef %5) #3
  %.not31 = icmp eq i32 %10, 0
  br i1 %.not31, label %35, label %11

11:                                               ; preds = %9
  %12 = tail call i32 @test_ptr(ptr noundef nonnull @.str, i32 noundef 264, ptr noundef nonnull @.str.54, ptr noundef %6) #3
  %.not32 = icmp eq i32 %12, 0
  br i1 %.not32, label %35, label %13

13:                                               ; preds = %11
  %14 = tail call i32 @test_ptr(ptr noundef nonnull @.str, i32 noundef 265, ptr noundef nonnull @.str.55, ptr noundef %7) #3
  %.not33 = icmp eq i32 %14, 0
  br i1 %.not33, label %35, label %15

15:                                               ; preds = %13
  %16 = tail call i32 @X509_up_ref(ptr noundef %1) #3
  %17 = tail call i32 @OPENSSL_sk_push(ptr noundef %7, ptr noundef %1) #3
  %18 = icmp ne i32 %17, 0
  %19 = zext i1 %18 to i32
  %20 = tail call i32 @test_true(ptr noundef nonnull @.str, i32 noundef 270, ptr noundef nonnull @.str.56, i32 noundef %19) #3
  %.not34 = icmp eq i32 %20, 0
  br i1 %.not34, label %35, label %21

21:                                               ; preds = %15
  %22 = tail call i32 @X509_STORE_CTX_init(ptr noundef %4, ptr noundef %5, ptr noundef %0, ptr noundef null) #3
  %23 = icmp ne i32 %22, 0
  %24 = zext i1 %23 to i32
  %25 = tail call i32 @test_true(ptr noundef nonnull @.str, i32 noundef 271, ptr noundef nonnull @.str.57, i32 noundef %24) #3
  %.not35 = icmp eq i32 %25, 0
  br i1 %.not35, label %35, label %26

26:                                               ; preds = %21
  tail call void @X509_STORE_CTX_set0_trusted_stack(ptr noundef %4, ptr noundef %7) #3
  tail call void @X509_STORE_CTX_set0_crls(ptr noundef %4, ptr noundef %2) #3
  tail call void @X509_VERIFY_PARAM_set_time(ptr noundef %6, i64 noundef 1474934400) #3
  %27 = tail call i64 @X509_VERIFY_PARAM_get_time(ptr noundef %6) #3
  %28 = tail call i32 @test_long_eq(ptr noundef nonnull @.str, i32 noundef 276, ptr noundef nonnull @.str.58, ptr noundef nonnull @.str.59, i64 noundef %27, i64 noundef 1474934400) #3
  %.not36 = icmp eq i32 %28, 0
  br i1 %.not36, label %35, label %29

29:                                               ; preds = %26
  tail call void @X509_VERIFY_PARAM_set_depth(ptr noundef %6, i32 noundef 16) #3
  %30 = tail call i32 @X509_VERIFY_PARAM_set_flags(ptr noundef %6, i64 noundef 4) #3
  tail call void @X509_STORE_CTX_set0_param(ptr noundef %4, ptr noundef %6) #3
  tail call void @ERR_clear_error() #3
  %31 = tail call i32 @X509_verify_cert(ptr noundef %4) #3
  %32 = icmp eq i32 %31, 1
  br i1 %32, label %35, label %33

33:                                               ; preds = %29
  %34 = tail call i32 @X509_STORE_CTX_get_error(ptr noundef %4) #3
  br label %35

35:                                               ; preds = %33, %29, %26, %15, %21, %3, %9, %11, %13
  %.029 = phi ptr [ %6, %26 ], [ %6, %21 ], [ %6, %15 ], [ %6, %13 ], [ %6, %11 ], [ %6, %9 ], [ %6, %3 ], [ null, %29 ], [ null, %33 ]
  %.0 = phi i32 [ 1, %26 ], [ 1, %21 ], [ 1, %15 ], [ 1, %13 ], [ 1, %11 ], [ 1, %9 ], [ 1, %3 ], [ 0, %29 ], [ %34, %33 ]
  tail call void @OSSL_STACK_OF_X509_free(ptr noundef %7) #3
  tail call void @OPENSSL_sk_pop_free(ptr noundef %2, ptr noundef nonnull @X509_CRL_free) #3
  tail call void @X509_VERIFY_PARAM_free(ptr noundef %.029) #3
  tail call void @X509_STORE_CTX_free(ptr noundef %4) #3
  tail call void @X509_STORE_free(ptr noundef %5) #3
  ret i32 %.0
}